target datalayout = "e-m:e-p270:32:32-p271:32:32-p272:64:64-i64:64-i128:128-f80:128-n8:16:32:64-S128"
target triple = "x86_64-pc-linux-gnu"

%struct.Abc_Ntk_t_ = type { i32, i32, ptr, ptr, ptr, ptr, ptr, ptr, ptr, ptr, ptr, ptr, ptr, [11 x i32], i32, i32, i32, i32, ptr, i32, ptr, ptr, i32, i32, i32, double, i32, %struct.Vec_Int_t_, ptr, ptr, ptr, ptr, ptr, float, i32, ptr, ptr, ptr, ptr, ptr, ptr, ptr, ptr, ptr, ptr, ptr, ptr, ptr, ptr, ptr, ptr, ptr, ptr, ptr, ptr, ptr, ptr }
%struct.Vec_Int_t_ = type { i32, i32, ptr }
%struct.Vec_Ptr_t_ = type { i32, i32, ptr }
%struct.Abc_Obj_t_ = type { ptr, ptr, i32, i32, %struct.Vec_Int_t_, %struct.Vec_Int_t_, %union.anon, %union.anon.0 }
%union.anon = type { ptr }
%union.anon.0 = type { ptr }

@stdout = external global ptr, align 8
@.str.19 = private unnamed_addr constant [6 x i8] c"miter\00", align 1
@.str.20 = private unnamed_addr constant [50 x i8] c"Abc_NtkCreateTarget(): Network check has failed.\0A\00", align 1

; Function Attrs: inlinehint nounwind uwtable
define internal ptr @Abc_NtkCreatePo(ptr noundef %0) #4 {
  %2 = alloca ptr, align 8
  store ptr %0, ptr %2, align 8, !tbaa !7
  %3 = load ptr, ptr %2, align 8, !tbaa !7
  %4 = call ptr @Abc_NtkCreateObj(ptr noundef %3, i32 noundef 3)
  ret ptr %4
}

; Function Attrs: inlinehint nounwind uwtable
define internal ptr @Abc_ObjNot(ptr noundef %0) #4 {
  %2 = alloca ptr, align 8
  store ptr %0, ptr %2, align 8, !tbaa !53
  %3 = load ptr, ptr %2, align 8, !tbaa !53
  %4 = ptrtoint ptr %3 to i64
  %5 = xor i64 %4, 1
  %6 = inttoptr i64 %5 to ptr
  ret ptr %6
}

; Function Attrs: inlinehint nounwind uwtable
define internal i32 @Vec_IntEntry(ptr noundef %0, i32 noundef %1) #4 {
  %3 = alloca ptr, align 8
  %4 = alloca i32, align 4
  store ptr %0, ptr %3, align 8, !tbaa !67
  store i32 %1, ptr %4, align 4, !tbaa !3
  %5 = load ptr, ptr %3, align 8, !tbaa !67
  %6 = getelementptr inbounds nuw %struct.Vec_Int_t_, ptr %5, i32 0, i32 2
  %7 = load ptr, ptr %6, align 8, !tbaa !71
  %8 = load i32, ptr %4, align 4, !tbaa !3
  %9 = sext i32 %8 to i64
  %10 = getelementptr inbounds i32, ptr %7, i64 %9
  %11 = load i32, ptr %10, align 4, !tbaa !3
  ret i32 %11
}

; Function Attrs: inlinehint nounwind uwtable
define internal ptr @Abc_ObjFanin0(ptr noundef %0) #4 {
  %2 = alloca ptr, align 8
  store ptr %0, ptr %2, align 8, !tbaa !53
  %3 = load ptr, ptr %2, align 8, !tbaa !53
  %4 = getelementptr inbounds nuw %struct.Abc_Obj_t_, ptr %3, i32 0, i32 0
  %5 = load ptr, ptr %4, align 8, !tbaa !83
  %6 = getelementptr inbounds nuw %struct.Abc_Ntk_t_, ptr %5, i32 0, i32 5
  %7 = load ptr, ptr %6, align 8, !tbaa !27
  %8 = getelementptr inbounds nuw %struct.Vec_Ptr_t_, ptr %7, i32 0, i32 2
  %9 = load ptr, ptr %8, align 8, !tbaa !46
  %10 = load ptr, ptr %2, align 8, !tbaa !53
  %11 = getelementptr inbounds nuw %struct.Abc_Obj_t_, ptr %10, i32 0, i32 4
  %12 = getelementptr inbounds nuw %struct.Vec_Int_t_, ptr %11, i32 0, i32 2
  %13 = load ptr, ptr %12, align 8, !tbaa !85
  %14 = getelementptr inbounds i32, ptr %13, i64 0
  %15 = load i32, ptr %14, align 4, !tbaa !3
  %16 = sext i32 %15 to i64
  %17 = getelementptr inbounds ptr, ptr %9, i64 %16
  %18 = load ptr, ptr %17, align 8, !tbaa !47
  ret ptr %18
}

; Function Attrs: inlinehint nounwind uwtable
define internal i32 @Abc_ObjIsCo(ptr noundef %0) #4 {
  %2 = alloca ptr, align 8
  store ptr %0, ptr %2, align 8, !tbaa !53
  %3 = load ptr, ptr %2, align 8, !tbaa !53
  %4 = getelementptr inbounds nuw %struct.Abc_Obj_t_, ptr %3, i32 0, i32 3
  %5 = load i32, ptr %4, align 4
  %6 = and i32 %5, 15
  %7 = icmp eq i32 %6, 3
  br i1 %7, label %14, label %8

8:                                                ; preds = %1
  %9 = load ptr, ptr %2, align 8, !tbaa !53
  %10 = getelementptr inbounds nuw %struct.Abc_Obj_t_, ptr %9, i32 0, i32 3
  %11 = load i32, ptr %10, align 4
  %12 = and i32 %11, 15
  %13 = icmp eq i32 %12, 4
  br label %14

14:                                               ; preds = %8, %1
  %15 = phi i1 [ true, %1 ], [ %13, %8 ]
  %16 = zext i1 %15 to i32
  ret i32 %16
}

; Function Attrs: inlinehint nounwind uwtable
define internal void @Vec_PtrFree(ptr noundef %0) #4 {
  %2 = alloca ptr, align 8
  store ptr %0, ptr %2, align 8, !tbaa !42
  %3 = load ptr, ptr %2, align 8, !tbaa !42
  %4 = getelementptr inbounds nuw %struct.Vec_Ptr_t_, ptr %3, i32 0, i32 2
  %5 = load ptr, ptr %4, align 8, !tbaa !46
  %6 = icmp ne ptr %5, null
  br i1 %6, label %7, label %13

7:                                                ; preds = %1
  %8 = load ptr, ptr %2, align 8, !tbaa !42
  %9 = getelementptr inbounds nuw %struct.Vec_Ptr_t_, ptr %8, i32 0, i32 2
  %10 = load ptr, ptr %9, align 8, !tbaa !46
  call void @free(ptr noundef %10) #11
  %11 = load ptr, ptr %2, align 8, !tbaa !42
  %12 = getelementptr inbounds nuw %struct.Vec_Ptr_t_, ptr %11, i32 0, i32 2
  store ptr null, ptr %12, align 8, !tbaa !46
  br label %14

13:                                               ; preds = %1
  br label %14

14:                                               ; preds = %13, %7
  %15 = load ptr, ptr %2, align 8, !tbaa !42
  %16 = icmp ne ptr %15, null
  br i1 %16, label %17, label %19

17:                                               ; preds = %14
  %18 = load ptr, ptr %2, align 8, !tbaa !42
  call void @free(ptr noundef %18) #11
  store ptr null, ptr %2, align 8, !tbaa !42
  br label %20

19:                                               ; preds = %14
  br label %20

20:                                               ; preds = %19, %17
  ret void
}

; Function Attrs: inlinehint nounwind uwtable
define internal ptr @Vec_PtrEntry(ptr noundef %0, i32 noundef %1) #4 {
  %3 = alloca ptr, align 8
  %4 = alloca i32, align 4
  store ptr %0, ptr %3, align 8, !tbaa !42
  store i32 %1, ptr %4, align 4, !tbaa !3
  %5 = load ptr, ptr %3, align 8, !tbaa !42
  %6 = getelementptr inbounds nuw %struct.Vec_Ptr_t_, ptr %5, i32 0, i32 2
  %7 = load ptr, ptr %6, align 8, !tbaa !46
  %8 = load i32, ptr %4, align 4, !tbaa !3
  %9 = sext i32 %8 to i64
  %10 = getelementptr inbounds ptr, ptr %7, i64 %9
  %11 = load ptr, ptr %10, align 8, !tbaa !47
  ret ptr %11
}

; Function Attrs: inlinehint nounwind uwtable
define internal i32 @Vec_PtrSize(ptr noundef %0) #4 {
  %2 = alloca ptr, align 8
  store ptr %0, ptr %2, align 8, !tbaa !42
  %3 = load ptr, ptr %2, align 8, !tbaa !42
  %4 = getelementptr inbounds nuw %struct.Vec_Ptr_t_, ptr %3, i32 0, i32 1
  %5 = load i32, ptr %4, align 4, !tbaa !43
  ret i32 %5
}

; Function Attrs: inlinehint nounwind uwtable
define internal ptr @Abc_NtkCreatePi(ptr noundef %0) #4 {
  %2 = alloca ptr, align 8
  store ptr %0, ptr %2, align 8, !tbaa !7
  %3 = load ptr, ptr %2, align 8, !tbaa !7
  %4 = call ptr @Abc_NtkCreateObj(ptr noundef %3, i32 noundef 2)
  ret ptr %4
}

; Function Attrs: inlinehint nounwind uwtable
define internal ptr @Abc_NtkCi(ptr noundef %0, i32 noundef %1) #4 {
  %3 = alloca ptr, align 8
  %4 = alloca i32, align 4
  store ptr %0, ptr %3, align 8, !tbaa !7
  store i32 %1, ptr %4, align 4, !tbaa !3
  %5 = load ptr, ptr %3, align 8, !tbaa !7
  %6 = getelementptr inbounds nuw %struct.Abc_Ntk_t_, ptr %5, i32 0, i32 8
  %7 = load ptr, ptr %6, align 8, !tbaa !31
  %8 = load i32, ptr %4, align 4, !tbaa !3
  %9 = call ptr @Vec_PtrEntry(ptr noundef %7, i32 noundef %8)
  ret ptr %9
}

; Function Attrs: inlinehint nounwind uwtable
define internal i32 @Abc_NtkCiNum(ptr noundef %0) #4 {
  %2 = alloca ptr, align 8
  store ptr %0, ptr %2, align 8, !tbaa !7
  %3 = load ptr, ptr %2, align 8, !tbaa !7
  %4 = getelementptr inbounds nuw %struct.Abc_Ntk_t_, ptr %3, i32 0, i32 8
  %5 = load ptr, ptr %4, align 8, !tbaa !31
  %6 = call i32 @Vec_PtrSize(ptr noundef %5)
  ret i32 %6
}

; Function Attrs: nounwind uwtable
define ptr @Abc_NtkCreateTarget(ptr noundef %0, ptr noundef %1, ptr noundef %2) #0 {
  %4 = alloca ptr, align 8
  %5 = alloca ptr, align 8
  %6 = alloca ptr, align 8
  %7 = alloca ptr, align 8
  %8 = alloca ptr, align 8
  %9 = alloca ptr, align 8
  %10 = alloca ptr, align 8
  %11 = alloca ptr, align 8
  %12 = alloca ptr, align 8
  %13 = alloca i32, align 4
  store ptr %0, ptr %4, align 8, !tbaa !7
  store ptr %1, ptr %5, align 8, !tbaa !42
  store ptr %2, ptr %6, align 8, !tbaa !67
  call void @llvm.lifetime.start.p0(i64 8, ptr %7) #11
  call void @llvm.lifetime.start.p0(i64 8, ptr %8) #11
  call void @llvm.lifetime.start.p0(i64 8, ptr %9) #11
  call void @llvm.lifetime.start.p0(i64 8, ptr %10) #11
  call void @llvm.lifetime.start.p0(i64 8, ptr %11) #11
  call void @llvm.lifetime.start.p0(i64 8, ptr %12) #11
  call void @llvm.lifetime.start.p0(i64 4, ptr %13) #11
  %14 = load ptr, ptr %4, align 8, !tbaa !7
  call void @Abc_NtkCleanCopy(ptr noundef %14)
  %15 = call ptr @Abc_NtkAlloc(i32 noundef 3, i32 noundef 3, i32 noundef 1)
  store ptr %15, ptr %8, align 8, !tbaa !7
  %16 = load ptr, ptr %4, align 8, !tbaa !7
  %17 = getelementptr inbounds nuw %struct.Abc_Ntk_t_, ptr %16, i32 0, i32 2
  %18 = load ptr, ptr %17, align 8, !tbaa !50
  %19 = call ptr @Extra_UtilStrsav(ptr noundef %18)
  %20 = load ptr, ptr %8, align 8, !tbaa !7
  %21 = getelementptr inbounds nuw %struct.Abc_Ntk_t_, ptr %20, i32 0, i32 2
  store ptr %19, ptr %21, align 8, !tbaa !50
  %22 = load ptr, ptr %4, align 8, !tbaa !7
  %23 = load ptr, ptr %5, align 8, !tbaa !42
  %24 = getelementptr inbounds nuw %struct.Vec_Ptr_t_, ptr %23, i32 0, i32 2
  %25 = load ptr, ptr %24, align 8, !tbaa !46
  %26 = load ptr, ptr %5, align 8, !tbaa !42
  %27 = getelementptr inbounds nuw %struct.Vec_Ptr_t_, ptr %26, i32 0, i32 1
  %28 = load i32, ptr %27, align 4, !tbaa !43
  %29 = call ptr @Abc_NtkDfsNodes(ptr noundef %22, ptr noundef %25, i32 noundef %28)
  store ptr %29, ptr %7, align 8, !tbaa !42
  store i32 0, ptr %13, align 4, !tbaa !3
  br label %30

30:                                               ; preds = %52, %3
  %31 = load i32, ptr %13, align 4, !tbaa !3
  %32 = load ptr, ptr %4, align 8, !tbaa !7
  %33 = call i32 @Abc_NtkCiNum(ptr noundef %32)
  %34 = icmp slt i32 %31, %33
  br i1 %34, label %35, label %39

35:                                               ; preds = %30
  %36 = load ptr, ptr %4, align 8, !tbaa !7
  %37 = load i32, ptr %13, align 4, !tbaa !3
  %38 = call ptr @Abc_NtkCi(ptr noundef %36, i32 noundef %37)
  store ptr %38, ptr %9, align 8, !tbaa !53
  br label %39

39:                                               ; preds = %35, %30
  %40 = phi i1 [ false, %30 ], [ true, %35 ]
  br i1 %40, label %41, label %55

41:                                               ; preds = %39
  %42 = load ptr, ptr %8, align 8, !tbaa !7
  %43 = call ptr @Abc_NtkCreatePi(ptr noundef %42)
  %44 = load ptr, ptr %9, align 8, !tbaa !53
  %45 = getelementptr inbounds nuw %struct.Abc_Obj_t_, ptr %44, i32 0, i32 7
  store ptr %43, ptr %45, align 8, !tbaa !52
  %46 = load ptr, ptr %9, align 8, !tbaa !53
  %47 = getelementptr inbounds nuw %struct.Abc_Obj_t_, ptr %46, i32 0, i32 7
  %48 = load ptr, ptr %47, align 8, !tbaa !52
  %49 = load ptr, ptr %9, align 8, !tbaa !53
  %50 = call ptr @Abc_ObjName(ptr noundef %49)
  %51 = call ptr @Abc_ObjAssignName(ptr noundef %48, ptr noundef %50, ptr noundef null)
  br label %52

52:                                               ; preds = %41
  %53 = load i32, ptr %13, align 4, !tbaa !3
  %54 = add nsw i32 %53, 1
  store i32 %54, ptr %13, align 4, !tbaa !3
  br label %30, !llvm.loop !170

55:                                               ; preds = %39
  store i32 0, ptr %13, align 4, !tbaa !3
  br label %56

56:                                               ; preds = %73, %55
  %57 = load i32, ptr %13, align 4, !tbaa !3
  %58 = load ptr, ptr %7, align 8, !tbaa !42
  %59 = call i32 @Vec_PtrSize(ptr noundef %58)
  %60 = icmp slt i32 %57, %59
  br i1 %60, label %61, label %65

61:                                               ; preds = %56
  %62 = load ptr, ptr %7, align 8, !tbaa !42
  %63 = load i32, ptr %13, align 4, !tbaa !3
  %64 = call ptr @Vec_PtrEntry(ptr noundef %62, i32 noundef %63)
  store ptr %64, ptr %9, align 8, !tbaa !53
  br label %65

65:                                               ; preds = %61, %56
  %66 = phi i1 [ false, %56 ], [ true, %61 ]
  br i1 %66, label %67, label %76

67:                                               ; preds = %65
  %68 = load ptr, ptr %8, align 8, !tbaa !7
  %69 = load ptr, ptr %9, align 8, !tbaa !53
  %70 = call ptr @Abc_NodeStrash(ptr noundef %68, ptr noundef %69, i32 noundef 0)
  %71 = load ptr, ptr %9, align 8, !tbaa !53
  %72 = getelementptr inbounds nuw %struct.Abc_Obj_t_, ptr %71, i32 0, i32 7
  store ptr %70, ptr %72, align 8, !tbaa !52
  br label %73

73:                                               ; preds = %67
  %74 = load i32, ptr %13, align 4, !tbaa !3
  %75 = add nsw i32 %74, 1
  store i32 %75, ptr %13, align 4, !tbaa !3
  br label %56, !llvm.loop !171

76:                                               ; preds = %65
  %77 = load ptr, ptr %7, align 8, !tbaa !42
  call void @Vec_PtrFree(ptr noundef %77)
  %78 = load ptr, ptr %8, align 8, !tbaa !7
  %79 = call ptr @Abc_AigConst1(ptr noundef %78)
  store ptr %79, ptr %10, align 8, !tbaa !53
  store i32 0, ptr %13, align 4, !tbaa !3
  br label %80

80:                                               ; preds = %119, %76
  %81 = load i32, ptr %13, align 4, !tbaa !3
  %82 = load ptr, ptr %5, align 8, !tbaa !42
  %83 = call i32 @Vec_PtrSize(ptr noundef %82)
  %84 = icmp slt i32 %81, %83
  br i1 %84, label %85, label %89

85:                                               ; preds = %80
  %86 = load ptr, ptr %5, align 8, !tbaa !42
  %87 = load i32, ptr %13, align 4, !tbaa !3
  %88 = call ptr @Vec_PtrEntry(ptr noundef %86, i32 noundef %87)
  store ptr %88, ptr %9, align 8, !tbaa !53
  br label %89

89:                                               ; preds = %85, %80
  %90 = phi i1 [ false, %80 ], [ true, %85 ]
  br i1 %90, label %91, label %122

91:                                               ; preds = %89
  %92 = load ptr, ptr %9, align 8, !tbaa !53
  %93 = call i32 @Abc_ObjIsCo(ptr noundef %92)
  %94 = icmp ne i32 %93, 0
  br i1 %94, label %95, label %100

95:                                               ; preds = %91
  %96 = load ptr, ptr %9, align 8, !tbaa !53
  %97 = call ptr @Abc_ObjFanin0(ptr noundef %96)
  %98 = getelementptr inbounds nuw %struct.Abc_Obj_t_, ptr %97, i32 0, i32 7
  %99 = load ptr, ptr %98, align 8, !tbaa !52
  store ptr %99, ptr %11, align 8, !tbaa !53
  br label %104

100:                                              ; preds = %91
  %101 = load ptr, ptr %9, align 8, !tbaa !53
  %102 = getelementptr inbounds nuw %struct.Abc_Obj_t_, ptr %101, i32 0, i32 7
  %103 = load ptr, ptr %102, align 8, !tbaa !52
  store ptr %103, ptr %11, align 8, !tbaa !53
  br label %104

104:                                              ; preds = %100, %95
  %105 = load ptr, ptr %6, align 8, !tbaa !67
  %106 = load i32, ptr %13, align 4, !tbaa !3
  %107 = call i32 @Vec_IntEntry(ptr noundef %105, i32 noundef %106)
  %108 = icmp eq i32 %107, 0
  br i1 %108, label %109, label %112

109:                                              ; preds = %104
  %110 = load ptr, ptr %11, align 8, !tbaa !53
  %111 = call ptr @Abc_ObjNot(ptr noundef %110)
  store ptr %111, ptr %11, align 8, !tbaa !53
  br label %112

112:                                              ; preds = %109, %104
  %113 = load ptr, ptr %8, align 8, !tbaa !7
  %114 = getelementptr inbounds nuw %struct.Abc_Ntk_t_, ptr %113, i32 0, i32 30
  %115 = load ptr, ptr %114, align 8, !tbaa !38
  %116 = load ptr, ptr %10, align 8, !tbaa !53
  %117 = load ptr, ptr %11, align 8, !tbaa !53
  %118 = call ptr @Abc_AigAnd(ptr noundef %115, ptr noundef %116, ptr noundef %117)
  store ptr %118, ptr %10, align 8, !tbaa !53
  br label %119

119:                                              ; preds = %112
  %120 = load i32, ptr %13, align 4, !tbaa !3
  %121 = add nsw i32 %120, 1
  store i32 %121, ptr %13, align 4, !tbaa !3
  br label %80, !llvm.loop !172

122:                                              ; preds = %89
  %123 = load ptr, ptr %8, align 8, !tbaa !7
  %124 = call ptr @Abc_NtkCreatePo(ptr noundef %123)
  store ptr %124, ptr %12, align 8, !tbaa !53
  %125 = load ptr, ptr %12, align 8, !tbaa !53
  %126 = load ptr, ptr %10, align 8, !tbaa !53
  call void @Abc_ObjAddFanin(ptr noundef %125, ptr noundef %126)
  %127 = load ptr, ptr %12, align 8, !tbaa !53
  %128 = call ptr @Abc_ObjAssignName(ptr noundef %127, ptr noundef @.str.19, ptr noundef null)
  %129 = load ptr, ptr %8, align 8, !tbaa !7
  %130 = call i32 @Abc_NtkCheck(ptr noundef %129)
  %131 = icmp ne i32 %130, 0
  br i1 %131, label %135, label %132

132:                                              ; preds = %122
  %133 = load ptr, ptr @stdout, align 8, !tbaa !105
  %134 = call i32 (ptr, ptr, ...) @fprintf(ptr noundef %133, ptr noundef @.str.20) #11
  br label %135

135:                                              ; preds = %132, %122
  %136 = load ptr, ptr %8, align 8, !tbaa !7
  call void @llvm.lifetime.end.p0(i64 4, ptr %13) #11
  call void @llvm.lifetime.end.p0(i64 8, ptr %12) #11
  call void @llvm.lifetime.end.p0(i64 8, ptr %11) #11
  call void @llvm.lifetime.end.p0(i64 8, ptr %10) #11
  call void @llvm.lifetime.end.p0(i64 8, ptr %9) #11
  call void @llvm.lifetime.end.p0(i64 8, ptr %8) #11
  call void @llvm.lifetime.end.p0(i64 8, ptr %7) #11
  ret ptr %136
}