; Function Attrs: nounwind uwtable
define noundef ptr @Abc_NtkCreateTarget(ptr noundef %0, ptr noundef readonly captures(none) %1, ptr noundef readonly captures(none) %2) local_unnamed_addr #0 {
  tail call void @Abc_NtkCleanCopy(ptr noundef %0) #20
  %4 = tail call ptr @Abc_NtkAlloc(i32 noundef 3, i32 noundef 3, i32 noundef 1)
  %5 = getelementptr inbounds nuw i8, ptr %0, i64 8
  %6 = load ptr, ptr %5, align 8, !tbaa !47
  %7 = tail call ptr @Extra_UtilStrsav(ptr noundef %6) #20
  %8 = getelementptr inbounds nuw i8, ptr %4, i64 8
  store ptr %7, ptr %8, align 8, !tbaa !47
  %9 = getelementptr inbounds nuw i8, ptr %1, i64 8
  %10 = load ptr, ptr %9, align 8, !tbaa !28
  %11 = getelementptr inbounds nuw i8, ptr %1, i64 4
  %12 = load i32, ptr %11, align 4, !tbaa !25
  %13 = tail call ptr @Abc_NtkDfsNodes(ptr noundef %0, ptr noundef %10, i32 noundef %12) #20
  %14 = getelementptr i8, ptr %0, i64 56
  %.val5561 = load ptr, ptr %14, align 8, !tbaa !33
  %15 = getelementptr i8, ptr %.val5561, i64 4
  %.val55.val62 = load i32, ptr %15, align 4, !tbaa !25
  %16 = icmp sgt i32 %.val55.val62, 0
  br i1 %16, label %.lr.ph, label %.critedge.preheader

.critedge.preheader:                              ; preds = %.lr.ph, %3
  %17 = getelementptr i8, ptr %13, i64 4
  %.val5265 = load i32, ptr %17, align 4, !tbaa !25
  %18 = icmp sgt i32 %.val5265, 0
  br i1 %18, label %.lr.ph67, label %.critedge2

.lr.ph67:                                         ; preds = %.critedge.preheader
  %19 = getelementptr i8, ptr %13, i64 8
  br label %.critedge

.lr.ph:                                           ; preds = %3, %.lr.ph
  %indvars.iv = phi i64 [ %indvars.iv.next, %.lr.ph ], [ 0, %3 ]
  %.val5564 = phi ptr [ %.val55, %.lr.ph ], [ %.val5561, %3 ]
  %20 = getelementptr i8, ptr %.val5564, i64 8
  %.val56.val = load ptr, ptr %20, align 8, !tbaa !28
  %21 = getelementptr inbounds nuw ptr, ptr %.val56.val, i64 %indvars.iv
  %22 = load ptr, ptr %21, align 8, !tbaa !40
  %23 = tail call ptr @Abc_NtkCreateObj(ptr noundef %4, i32 noundef 2) #20
  %24 = getelementptr inbounds nuw i8, ptr %22, i64 64
  store ptr %23, ptr %24, align 8, !tbaa !49
  %25 = tail call ptr @Abc_ObjName(ptr noundef %22) #20
  %26 = tail call ptr @Abc_ObjAssignName(ptr noundef %23, ptr noundef %25, ptr noundef null) #20
  %indvars.iv.next = add nuw nsw i64 %indvars.iv, 1
  %.val55 = load ptr, ptr %14, align 8, !tbaa !33
  %27 = getelementptr i8, ptr %.val55, i64 4
  %.val55.val = load i32, ptr %27, align 4, !tbaa !25
  %28 = sext i32 %.val55.val to i64
  %29 = icmp slt i64 %indvars.iv.next, %28
  br i1 %29, label %.lr.ph, label %.critedge.preheader, !llvm.loop !178

.critedge:                                        ; preds = %.lr.ph67, %.critedge
  %indvars.iv73 = phi i64 [ 0, %.lr.ph67 ], [ %indvars.iv.next74, %.critedge ]
  %.val54 = load ptr, ptr %19, align 8, !tbaa !28
  %30 = getelementptr inbounds nuw ptr, ptr %.val54, i64 %indvars.iv73
  %31 = load ptr, ptr %30, align 8, !tbaa !40
  %32 = tail call ptr @Abc_NodeStrash(ptr noundef %4, ptr noundef %31, i32 noundef 0) #20
  %33 = getelementptr inbounds nuw i8, ptr %31, i64 64
  store ptr %32, ptr %33, align 8, !tbaa !49
  %indvars.iv.next74 = add nuw nsw i64 %indvars.iv73, 1
  %.val52 = load i32, ptr %17, align 4, !tbaa !25
  %34 = sext i32 %.val52 to i64
  %35 = icmp slt i64 %indvars.iv.next74, %34
  br i1 %35, label %.critedge, label %.critedge2, !llvm.loop !179

.critedge2:                                       ; preds = %.critedge, %.critedge.preheader
  %36 = getelementptr inbounds nuw i8, ptr %13, i64 8
  %37 = load ptr, ptr %36, align 8, !tbaa !28
  %.not.i = icmp eq ptr %37, null
  br i1 %.not.i, label %Vec_PtrFree.exit, label %38

38:                                               ; preds = %.critedge2
  tail call void @free(ptr noundef nonnull %37) #20
  br label %Vec_PtrFree.exit

Vec_PtrFree.exit:                                 ; preds = %.critedge2, %38
  tail call void @free(ptr noundef nonnull %13) #20
  %39 = tail call ptr @Abc_AigConst1(ptr noundef %4) #20
  %.val68 = load i32, ptr %11, align 4, !tbaa !25
  %40 = icmp sgt i32 %.val68, 0
  br i1 %40, label %.lr.ph71, label %.critedge4

.lr.ph71:                                         ; preds = %Vec_PtrFree.exit
  %41 = getelementptr i8, ptr %2, i64 8
  %42 = getelementptr inbounds nuw i8, ptr %4, i64 256
  br label %43

43:                                               ; preds = %.lr.ph71, %56
  %indvars.iv76 = phi i64 [ 0, %.lr.ph71 ], [ %indvars.iv.next77, %56 ]
  %.05069 = phi ptr [ %39, %.lr.ph71 ], [ %64, %56 ]
  %.val53 = load ptr, ptr %9, align 8, !tbaa !28
  %44 = getelementptr inbounds nuw ptr, ptr %.val53, i64 %indvars.iv76
  %45 = load ptr, ptr %44, align 8, !tbaa !40
  %46 = getelementptr i8, ptr %45, i64 20
  %.val60 = load i32, ptr %46, align 4
  %47 = and i32 %.val60, 15
  %48 = add nsw i32 %47, -5
  %narrow.i = icmp ult i32 %48, -2
  br i1 %narrow.i, label %56, label %49

49:                                               ; preds = %43
  %.val57 = load ptr, ptr %45, align 8, !tbaa !75
  %50 = getelementptr i8, ptr %45, i64 32
  %.val58 = load ptr, ptr %50, align 8, !tbaa !78
  %51 = getelementptr i8, ptr %.val57, i64 32
  %.val57.val = load ptr, ptr %51, align 8, !tbaa !29
  %.val58.val = load i32, ptr %.val58, align 4, !tbaa !57
  %52 = getelementptr i8, ptr %.val57.val, i64 8
  %.val57.val.val = load ptr, ptr %52, align 8, !tbaa !28
  %53 = sext i32 %.val58.val to i64
  %54 = getelementptr inbounds ptr, ptr %.val57.val.val, i64 %53
  %55 = load ptr, ptr %54, align 8, !tbaa !40
  br label %56

56:                                               ; preds = %43, %49
  %.pn = phi ptr [ %55, %49 ], [ %45, %43 ]
  %.048.in = getelementptr inbounds nuw i8, ptr %.pn, i64 64
  %.048 = load ptr, ptr %.048.in, align 8, !tbaa !49
  %.val59 = load ptr, ptr %41, align 8, !tbaa !61
  %57 = getelementptr inbounds nuw i32, ptr %.val59, i64 %indvars.iv76
  %58 = load i32, ptr %57, align 4, !tbaa !57
  %59 = icmp eq i32 %58, 0
  %60 = ptrtoint ptr %.048 to i64
  %61 = xor i64 %60, 1
  %62 = inttoptr i64 %61 to ptr
  %.149 = select i1 %59, ptr %62, ptr %.048
  %63 = load ptr, ptr %42, align 8, !tbaa !41
  %64 = tail call ptr @Abc_AigAnd(ptr noundef %63, ptr noundef %.05069, ptr noundef %.149) #20
  %indvars.iv.next77 = add nuw nsw i64 %indvars.iv76, 1
  %.val = load i32, ptr %11, align 4, !tbaa !25
  %65 = sext i32 %.val to i64
  %66 = icmp slt i64 %indvars.iv.next77, %65
  br i1 %66, label %43, label %.critedge4, !llvm.loop !180

.critedge4:                                       ; preds = %56, %Vec_PtrFree.exit
  %.050.lcssa = phi ptr [ %39, %Vec_PtrFree.exit ], [ %64, %56 ]
  %67 = tail call ptr @Abc_NtkCreateObj(ptr noundef %4, i32 noundef 3) #20
  tail call void @Abc_ObjAddFanin(ptr noundef %67, ptr noundef %.050.lcssa) #20
  %68 = tail call ptr @Abc_ObjAssignName(ptr noundef %67, ptr noundef nonnull @.str.19, ptr noundef null) #20
  %69 = tail call i32 @Abc_NtkCheck(ptr noundef %4) #20
  %.not = icmp eq i32 %69, 0
  br i1 %.not, label %70, label %73

70:                                               ; preds = %.critedge4
  %71 = load ptr, ptr @stdout, align 8, !tbaa !100
  %72 = tail call i64 @fwrite(ptr nonnull @.str.20, i64 49, i64 1, ptr %71)
  br label %73

73:                                               ; preds = %70, %.critedge4
  ret ptr %4
}